


ARM Macro Assembler    Page 1 


    1 00000000                 AREA             matrix,CODE,READONLY
    2 00000000                 ENTRY
    3 00000000         start
    4 00000000         
    5 00000000 E59FBC74        LDR              r11,=Matrix_data ;(R10)
    6 00000004 E59FA620        LDR              r10,tempaddr
    7 00000008 E59FD620        LDR              sp,tempaddr2
    8 0000000C E49B0004        LDR              r0,[r11],#4 ; size   (R0)
    9 00000010 E1A01000        MOV              r1,r0
   10 00000014 E1A0E00F        MOV              lr,pc
   11 00000018 EA0000B3        B                calculate_size
   12 0000001C E1A0C000        MOV              r12,r0
   13 00000020 E1A0E00F        MOV              lr,pc
   14 00000024 EA0000AB        B                get_line_byte
   15 00000028 E1A01000        MOV              r1,r0
   16 0000002C E3A03000        MOV              r3,#0
   17 00000030 E3A04000        MOV              r4,#0
   18 00000034 E59FBC40        LDR              r11,=Matrix_data
   19 00000038 E49B0004        LDR              r0,[r11],#4 ; size   (R0)
   20 0000003C E1A0E00F        MOV              lr,pc
   21 00000040 EA0000AE        B                store_data
   22 00000044 E1A01000        MOV              r1,r0
   23 00000048 E59FA5DC        LDR              r10,tempaddr
   24 0000004C E1A03000        MOV              r3,r0
   25 00000050 E08AA009        ADD              r10,r10,r9
   26 00000054 E0896009        ADD              r6,r9,r9
   27 00000058         initialize_inverse_matrix
   28 00000058 E3A055FE        LDR              r5,=0x3f800000
   29 0000005C E68A5006        STR              r5,[r10],r6
   30 00000060 E28AA004        ADD              r10,r10,#4
   31 00000064 E2433001        SUB              r3,r3,#1
   32 00000068 E3530000        CMP              r3,#0
   33 0000006C 1AFFFFF9        BNE              initialize_inverse_matrix
   34 00000070         
   35 00000070         ;initialize
   36 00000070 E59FC5B4        LDR              r12,tempaddr ;;;;;;;;;;;;;;(R12
                                                            ) current line
   37 00000074 E59FB5B0        LDR              r11,tempaddr ;;;;;;;;;;;; (R11)
                                                             matrix address
   38 00000078 E1A0A000        MOV              r10,r0      ;;;;;;;;;;;; (R10) 
                                                            size-1
   39 0000007C E24AA001        SUB              r10,r10,#1
   40 00000080 E0898009        ADD              r8,r9,r9    ;;;;;;;;;;;; (R9)  
                                                            size*2-1
   41 00000084 E2499001        SUB              r9,r9,#1
   42 00000088 E0809000        ADD              r9,r0,r0    ;;;;;;;;;;;; (R8)  
                                                            line byte*2
   43 0000008C E2499001        SUB              r9,r9,#1
   44 00000090 E3A07000        MOV              r7,#0       ;;;;;;;;;;;;;;;; (R
                                                            7=i) big loop
   45 00000094 E3A04000        MOV              r4,#0
   46 00000098 E9AD1FF0        STMFA            sp!,{r4-r12}
   47 0000009C         big_loop
   48 0000009C E83D1FF0        LDMFA            sp!,{r4-r12}
   49 000000A0 E3A06000        MOV              r6,#0       ;;;;;;;;;;;;;;;;;j
   50 000000A4 E3A05000        MOV              r5,#0       ;;;;;;;;;;;      k
   51 000000A8 E59FB57C        LDR              r11,tempaddr
   52 000000AC E28A1001        ADD              r1,r10,#1
   53 000000B0 E3A03000        MOV              r3,#0



ARM Macro Assembler    Page 2 


   54 000000B4 E1530007 
                       set_t   CMP              r3,r7
   55 000000B8 108BB008        ADDNE            r11,r11,r8
   56 000000BC 128BB004        ADDNE            r11,r11,#4
   57 000000C0 12833001        ADDNE            r3,r3,#1
   58 000000C4 1AFFFFFA        BNE              set_t
   59 000000C8 E59B4000        LDR              r4,[r11]
   60 000000CC E59FB558        LDR              r11,tempaddr
   61 000000D0 E3A06000        MOV              r6,#0       ;j=i
   62 000000D4         set_i_j
   63 000000D4 E1560007        CMP              r6,r7
   64 000000D8 12866001        ADDNE            r6,r6,#1
   65 000000DC 108BB008        ADDNE            r11,r11,r8
   66 000000E0 128BB004        ADDNE            r11,r11,#4
   67 000000E4 1AFFFFFA        BNE              set_i_j
   68 000000E8 E9AD1FF0        STMFA            sp!,{r4-r12}
   69 000000EC         
   70 000000EC E3540000        CMP              r4,#0
   71 000000F0 1A000024        BNE              loop1
   72 000000F4 E1A0E00F        MOV              lr,pc
   73 000000F8 EA000003        B                line_exchange
   74 000000FC E83D1FF0        LDMFA            sp!,{r4-r12}
   75 00000100 E1A04000        MOV              r4,r0
   76 00000104 E9AD1FF0        STMFA            sp!,{r4-r12}
   77 00000108 EA00001E        B                loop1
   78 0000010C         
   79 0000010C         line_exchange
   80 0000010C E3A00000        MOV              r0,#0
   81 00000110 E59F1514        LDR              r1,tempaddr
   82 00000114 E1A03007        MOV              r3,r7
   83 00000118         go_n_i
   84 00000118 E3530000        CMP              r3,#0
   85 0000011C 12811004        ADDNE            r1,r1,#4
   86 00000120 1AFFFFFC        BNE              go_n_i
   87 00000124         
   88 00000124         go_k_i
   89 00000124 E0811008        ADD              r1,r1,r8    ;changed t=r1
   90 00000128 E5912000        LDR              r2,[r1]
   91 0000012C E2800001        ADD              r0,r0,#1
   92 00000130 E3520000        CMP              r2,#0
   93 00000134 11A00002        MOVNE            r0,r2
   94 00000138 0AFFFFF9        BEQ              go_k_i
   95 0000013C         
   96 0000013C E59F44E8        LDR              r4,tempaddr
   97 00000140 E3A05000        MOV              r5,#0
   98 00000144 E3A03000        MOV              r3,#0
   99 00000148 E1550007 
                       go_i_0  CMP              r5,r7       ;r4=i address
  100 0000014C 10844008        ADDNE            r4,r4,r8
  101 00000150 1AFFFFFC        BNE              go_i_0
  102 00000154 E1A06001        MOV              r6,r1       ;;;;;;;;;r6=k addre
                                                            ss
  103 00000158 E1530007 
                       go_k_0  CMP              r3,r7
  104 0000015C 12466004        SUBNE            r6,r6,#4
  105 00000160 1AFFFFFC        BNE              go_k_0
  106 00000164 E1A03009        MOV              r3,r9
  107 00000168 E5942000 
                       change  LDR              r2,[r4]



ARM Macro Assembler    Page 3 


  108 0000016C E5965000        LDR              r5,[r6]
  109 00000170 E4845004        STR              r5,[r4],#4
  110 00000174 E4862004        STR              r2,[r6],#4
  111 00000178 E3530000        CMP              r3,#0
  112 0000017C 12433001        SUBNE            r3,r3,#1
  113 00000180 1AFFFFF8        BNE              change
  114 00000184 E1A0F00E        MOV              pc,lr
  115 00000188         
  116 00000188         
  117 00000188         
  118 00000188         loop1
  119 00000188 E83D1FF0        LDMFA            sp!,{r4-r12}
  120 0000018C E59B2000        LDR              r2,[r11]
  121 00000190 E1A01004        MOV              r1,r4
  122 00000194 E9AD1FF0        STMFA            sp!,{r4-r12}
  123 00000198 E3520000        CMP              r2,#0
  124 0000019C 11A0E00F        MOVNE            lr,pc
  125 000001A0 1A0000BB        BNE              divi
  126 000001A4 E83D1FF0        LDMFA            sp!,{r4-r12}
  127 000001A8 E48B2004        STR              r2,[r11],#4
  128 000001AC E1560009        CMP              r6,r9
  129 000001B0 12866001        ADDNE            r6,r6,#1
  130 000001B4 19AD1FF0        STMNEFA          sp!,{r4-r12}
  131 000001B8 1AFFFFF2        BNE              loop1
  132 000001BC 03A06000        MOVEQ            r6,#0
  133 000001C0         
  134 000001C0 EAFFFFFF        B                loop2
  135 000001C4         
  136 000001C4         
  137 000001C4         
  138 000001C4 E1570006 
                       loop2   CMP              r7,r6
  139 000001C8 02866001        ADDEQ            r6,r6,#1
  140 000001CC 0AFFFFFC        BEQ              loop2
  141 000001D0 E3A01000        MOV              r1,#0
  142 000001D4 E08A000A        ADD              r0,r10,r10
  143 000001D8 E2800001        ADD              r0,r0,#1
  144 000001DC E0871006        ADD              r1,r7,r6
  145 000001E0 E1500001        CMP              r0,r1       ;;;finish
  146 000001E4 0A00004F        BEQ              finish_matrix
  147 000001E8 E59FB43C        LDR              r11,tempaddr
  148 000001EC E1A0000B        MOV              r0,r11
  149 000001F0 E1A01006        MOV              r1,r6
  150 000001F4         
  151 000001F4         
  152 000001F4         set_t_row
  153 000001F4 E3510000        CMP              r1,#0
  154 000001F8 12411001        SUBNE            r1,r1,#1
  155 000001FC 10800008        ADDNE            r0,r0,r8
  156 00000200 1AFFFFFB        BNE              set_t_row
  157 00000204 E1A01007        MOV              r1,r7
  158 00000208         set_t_col
  159 00000208 E3510000        CMP              r1,#0
  160 0000020C 12411001        SUBNE            r1,r1,#1
  161 00000210 12800004        ADDNE            r0,r0,#4
  162 00000214 1AFFFFFB        BNE              set_t_col
  163 00000218 E5904000        LDR              r4,[r0]     ;;;;;;;;;;;;;;;r4=t
                                                            
  164 0000021C E9AD1FF0        STMFA            sp!,{r4-r12}



ARM Macro Assembler    Page 4 


  165 00000220 E1A0000B        MOV              r0,r11
  166 00000224 E1A01007        MOV              r1,r7       ;;;;  i 
  167 00000228         set_i_k
  168 00000228 E3510000        CMP              r1,#0
  169 0000022C 12411001        SUBNE            r1,r1,#1
  170 00000230 10800008        ADDNE            r0,r0,r8
  171 00000234 1AFFFFFB        BNE              set_i_k
  172 00000238 E1A03000        MOV              r3,r0       ;;;;;;;;;;;;;;; i_k
                                                             address     r3
  173 0000023C E1A0000B        MOV              r0,r11
  174 00000240 E1A01006        MOV              r1,r6       ;;;;  i 
  175 00000244         set_j_k
  176 00000244 E3510000        CMP              r1,#0
  177 00000248 12411001        SUBNE            r1,r1,#1
  178 0000024C 10800008        ADDNE            r0,r0,r8
  179 00000250 1AFFFFFB        BNE              set_j_k
  180 00000254         
  181 00000254 E1A0C000        MOV              r12,r0      ;;;;;;;;;;;;;; j_k 
                                                            address  r12
  182 00000258 E9AD1FF8        STMFA            sp!,{r3-r12}
  183 0000025C         
  184 0000025C         loop3
  185 0000025C E83D1FF8        LDMFA            sp!,{r3-r12}
  186 00000260 E1A01004        MOV              r1,r4
  187 00000264 E4932004        LDR              r2,[r3],#4
  188 00000268 E9AD1FF8        STMFA            sp!,{r3-r12}
  189 0000026C E3520000        CMP              r2,#0
  190 00000270 11A0E00F        MOVNE            lr,pc
  191 00000274 1A000042        BNE              mult
  192 00000278 E83D1FF8        LDMFA            sp!,{r3-r12}
  193 0000027C E59C1000        LDR              r1,[r12]
  194 00000280 E9AD1FF8        STMFA            sp!,{r3-r12}
  195 00000284 E2222102        EOR              r2,#0x80000000
  196 00000288 E1A0E00F        MOV              lr,pc
  197 0000028C EA0000A7        B                add_sub
  198 00000290 E83D1FF8        LDMFA            sp!,{r3-r12}
  199 00000294 E48C2004        STR              r2,[r12],#4
  200 00000298 E9AD1FF8        STMFA            sp!,{r3-r12}
  201 0000029C E1550009        CMP              r5,r9
  202 000002A0 12855001        ADDNE            r5,r5,#1
  203 000002A4 19AD1FF8        STMNEFA          sp!,{r3-r12}
  204 000002A8 1AFFFFEB        BNE              loop3
  205 000002AC E156000A        CMP              r6,r10
  206 000002B0 12866001        ADDNE            r6,r6,#1
  207 000002B4 13A05000        MOVNE            r5,#0
  208 000002B8 19AD1FF0        STMNEFA          sp!,{r4-r12}
  209 000002BC 1AFFFFC0        BNE              loop2
  210 000002C0 E157000A        CMP              r7,r10
  211 000002C4 12877001        ADDNE            r7,r7,#1
  212 000002C8 13A05000        MOVNE            r5,#0
  213 000002CC 13A06000        MOVNE            r6,#0
  214 000002D0 19AD1FF0        STMNEFA          sp!,{r4-r12}
  215 000002D4 1AFFFF70        BNE              big_loop
  216 000002D8         
  217 000002D8         
  218 000002D8         
  219 000002D8         get_line_byte
  220 000002D8 E2899004        ADD              r9,r9,#4    ;(r11)
  221 000002DC E24CC001        SUB              r12,r12,#1



ARM Macro Assembler    Page 5 


  222 000002E0 E35C0000        CMP              r12,#0
  223 000002E4 1AFFFFFB        BNE              get_line_byte
  224 000002E8 01A0F00E        MOVEQ            pc,lr
  225 000002EC         
  226 000002EC         
  227 000002EC         calculate_size
  228 000002EC E0822000        ADD              r2,r2,r0    ;                 n
                                                            *n=(R2)
  229 000002F0 E2411001        SUB              r1,r1,#1
  230 000002F4 E3510000        CMP              r1,#0
  231 000002F8 1AFFFFFB        BNE              calculate_size
  232 000002FC 01A0F00E        MOVEQ            pc,lr
  233 00000300         
  234 00000300         
  235 00000300         store_data
  236 00000300 E3510000        CMP              r1,#0
  237 00000304 01A01000        MOVEQ            r1,r0
  238 00000308 0089A00A        ADDEQ            r10,r9,r10
  239 0000030C 149B4004        LDRNE            r4,[r11],#4
  240 00000310 148A4004        STRNE            r4,[r10],#4
  241 00000314 12411001        SUBNE            r1,r1,#1
  242 00000318 12833001        ADDNE            r3,r3,#1
  243 0000031C E1530002        CMP              r3,r2
  244 00000320 1AFFFFF6        BNE              store_data
  245 00000324 01A0F00E        MOVEQ            pc,lr
  246 00000328         
  247 00000328         
  248 00000328 E59F0304 
                       finish_matrix
                               LDR              r0,Result_data
  249 0000032C E59F12F8        LDR              r1,tempaddr
  250 00000330 E1A0C00A        MOV              r12,r10
  251 00000334 E3A09000        MOV              r9,#0
  252 00000338 E1A0E00F        MOV              lr,pc
  253 0000033C EAFFFFE5        B                get_line_byte
  254 00000340 E2899004        ADD              r9,r9,#4
  255 00000344 E0811009        ADD              r1,r1,r9
  256 00000348 E1A0400A        MOV              r4,r10
  257 0000034C E3A03000        MOV              r3,#0
  258 00000350         
  259 00000350         
  260 00000350 E4912004 
                       store_result
                               LDR              r2,[r1],#4
  261 00000354 E4802004        STR              r2,[r0],#4
  262 00000358 E153000A        CMP              r3,r10
  263 0000035C 12833001        ADDNE            r3,r3,#1
  264 00000360 1AFFFFFA        BNE              store_result
  265 00000364 0AFFFFFF        BEQ              next_line
  266 00000368         
  267 00000368 E0811009 
                       next_line
                               ADD              r1,r1,r9
  268 0000036C E3540000        CMP              r4,#0
  269 00000370 12444001        SUBNE            r4,r4,#1
  270 00000374 13A03000        MOVNE            r3,#0
  271 00000378 1AFFFFF4        BNE              store_result
  272 0000037C 0AFFFFFF        BEQ              program_end
  273 00000380         



ARM Macro Assembler    Page 6 


  274 00000380         program_end
  275 00000380 E3A0F000        MOV              pc,#0       ;Program end
  276 00000384         
  277 00000384         ;;;;;;;;;;;;;;;;;;;;;;;;;;;;;;;;;;;;;;;;;;;;;;;;;;;;;;;;
                       ;;;;;;;;;;;;;;;;;;;;;;;;;;;;;;;;;;;
  278 00000384         mult
  279 00000384 E3A0B000        MOV              r11,#0
  280 00000388 E3510000        CMP              r1,#0
  281 0000038C 03A02000        MOVEQ            r2,#0
  282 00000390 01A0F00E        MOVEQ            pc,lr
  283 00000394 E3520000        CMP              r2,#0
  284 00000398 01A0F00E        MOVEQ            pc,lr
  285 0000039C E3A09102        LDR              r9,=0x80000000
  286 000003A0 E0013009        AND              r3,r1,r9    ;extract sign bit 1
                                                              
  287 000003A4 E0024009        AND              r4,r2,r9    ;extract sign bit 2
                                                              
  288 000003A8 E59F98D4        LDR              r9,=0x7F800000
  289 000003AC E0015009        AND              r5,r1,r9    ;extract exponent b
                                                            it 1  
  290 000003B0 E0026009        AND              r6,r2,r9    ;extract exponent b
                                                            it 2   
  291 000003B4         
  292 000003B4 E0233004        EOR              r3,r3,r4    ; result's sign bit
                                                             (r3)
  293 000003B8         
  294 000003B8 E1A05BA5        MOV              r5,r5,LSR #23
  295 000003BC E1A06BA6        MOV              r6,r6,LSR #23
  296 000003C0 E085A006        ADD              r10,r5,r6
  297 000003C4 E24A40FE        SUB              r4,r10,#254 ;result's exponent 
                                                            bit (r4)
  298 000003C8 E59F98B8        LDR              r9,=0x007FFFFF
  299 000003CC E0011009        AND              r1,r1,r9    ; extract mantissa 
                                                            bit 1  (r1)
  300 000003D0 E3811502        ORR              r1,r1,#0x00800000
  301 000003D4 E1E00001        MVN              r0,r1       ;
  302 000003D8 E2800001        ADD              r0,r0,#1    ; ~multiplicand
  303 000003DC E0028009        AND              r8,r2,r9    ; extract mantissa 
                                                            bit 2   (R2)
  304 000003E0 E3888502        ORR              r8,r8,#0x00800000 ; 
  305 000003E4 E1A08088        MOV              r8,r8,LSL #1 ;for compare (r2)
  306 000003E8 E1A05008        MOV              r5,r8       ; for RSC multiplie
                                                            r
  307 000003EC         
  308 000003EC         
  309 000003EC         booth                                ;U=r7  V=r8
  310 000003EC E1A06005        MOV              r6, r5      ; for xi & xi-1
  311 000003F0 E2066007        AND              r6,#0x00000007 ;
  312 000003F4 E3560001        CMP              r6,#1       ; +1X 
  313 000003F8 00877001        ADDEQ            r7,r7,r1
  314 000003FC E3560002        CMP              r6,#2       ; +1X
  315 00000400 00877001        ADDEQ            r7,r7,r1
  316 00000404 E3560003        CMP              r6,#3       ; +2X
  317 00000408 00877081        ADDEQ            r7,r7,r1, LSL #1
  318 0000040C E3560004        CMP              r6, #4      ; -2X
  319 00000410 00877080        ADDEQ            r7,r7,r0, LSL #1
  320 00000414 E3560005        CMP              r6, #5      ; -X
  321 00000418 00877000        ADDEQ            r7,r7,r0
  322 0000041C E3560006        CMP              r6,#6       ;-X



ARM Macro Assembler    Page 7 


  323 00000420 00877000        ADDEQ            r7,r0
  324 00000424         
  325 00000424 E1A0B12B        MOV              r11,r11,LSR #2
  326 00000428 E2079003        AND              r9,r7,#3    ;calculate overflow
                                                            
  327 0000042C E1A09F09        MOV              r9,r9,LSL #30
  328 00000430 E08BB009        ADD              r11,r11,r9
  329 00000434         
  330 00000434 E1A07147        MOV              r7, r7, ASR #2 ; lsr U
  331 00000438 E1A05165        MOV              r5, r5, ROR #2 ; lsr X
  332 0000043C E1580005        CMP              r8,r5
  333 00000440 1AFFFFE9        BNE              booth
  334 00000444         
  335 00000444 E3A01000        MOV              r1,#0
  336 00000448         make_fraction
  337 00000448 E1A08007        MOV              r8,r7
  338 0000044C E2088102        AND              r8,#0x80000000
  339 00000450 E1A07087        MOV              r7,r7,LSL #1
  340 00000454 E1A0C00B        MOV              r12,r11
  341 00000458 E1A0CFAC        MOV              r12,r12,LSR #31
  342 0000045C E1A0B08B        MOV              r11,r11,LSL #1
  343 00000460 E087700C        ADD              r7,r12
  344 00000464 E3580102        CMP              r8,#0x80000000
  345 00000468 E2811001        ADD              r1,r1,#1
  346 0000046C 1AFFFFF5        BNE              make_fraction
  347 00000470         
  348 00000470         ;nomalize 
  349 00000470 E3510011        CMP              r1,#0x11
  350 00000474 02844001        ADDEQ            r4,r4,#1
  351 00000478 E1A074A7        MOV              r7,r7,LSR #9
  352 0000047C E284407F        ADD              r4,r4,#127
  353 00000480 E1A04B84        MOV              r4,r4,LSL #23
  354 00000484 E0877004        ADD              r7,r7,r4
  355 00000488 E0877003        ADD              r7,r7,r3
  356 0000048C E1A02007        MOV              r2,r7
  357 00000490 E1A0F00E        MOV              pc,lr
  358 00000494         ;;;;;;;;;;;;;;;;;;;;;;;;;;;;;;;;;;;;;;;;;;;;;;;;;;;;;;;;
                       ;;;;;;;;;;;;;;;;;;;;;;;;;;;;
  359 00000494         
  360 00000494         divi
  361 00000494 E3A09102        LDR              r9,=0x80000000
  362 00000498 E0013009        AND              r3,r1,r9    ;extract sign bit 1
                                                              
  363 0000049C E0024009        AND              r4,r2,r9    ;extract sign bit 2
                                                              
  364 000004A0 E59F97DC        LDR              r9,=0x7F800000
  365 000004A4 E0015009        AND              r5,r1,r9    ;extract exponent b
                                                            it 1  
  366 000004A8 E0026009        AND              r6,r2,r9    ;extract exponent b
                                                            it 2   
  367 000004AC         
  368 000004AC E0233004        EOR              r3,r3,r4    ; result's sign bit
                                                             (r3)
  369 000004B0         
  370 000004B0 E1A05BA5        MOV              r5,r5,LSR #23
  371 000004B4 E1A06BA6        MOV              r6,r6,LSR #23
  372 000004B8 E0464005        SUB              r4,r6,r5    ;result's exponent 
                                                            bit (r4)
  373 000004BC E59F97C4        LDR              r9,=0x007FFFFF



ARM Macro Assembler    Page 8 


  374 000004C0 E0011009        AND              r1,r1,r9    ; extract mantissa 
                                                            bit 1  (r1)
  375 000004C4 E3811502        ORR              r1,r1,#0x00800000
  376 000004C8 E0022009        AND              r2,r2,r9    ; extract mantissa 
                                                            bit 2   (R2)
  377 000004CC E3822502        ORR              r2,r2,#0x00800000 ; 
  378 000004D0 E3A09018        MOV              r9,#24
  379 000004D4 E3A0A000        MOV              r10,#0
  380 000004D8         ;result=r12 
  381 000004D8         division
  382 000004D8 E3A06001        MOV              r6,#1       ; for operand div ;
                                                            23->1
  383 000004DC E1520001        CMP              r2,r1
  384 000004E0 A0422001        SUBGE            r2,r2,r1
  385 000004E4 A1A06916        MOVGE            r6,r6,LSL r9
  386 000004E8 A08AA006        ADDGE            r10,r10,r6
  387 000004EC E1A02082        MOV              r2,r2,LSL #1
  388 000004F0 E2499001        SUB              r9,r9,#1
  389 000004F4 E3590000        CMP              r9,#0
  390 000004F8 0A000000        BEQ              result
  391 000004FC 1AFFFFF5        BNE              division
  392 00000500         
  393 00000500         
  394 00000500         result
  395 00000500 E20A5401        AND              r5,r10, #0x01000000
  396 00000504 E3550401        CMP              r5,#0x01000000
  397 00000508 024AA401        SUBEQ            r10,r10,#0x01000000
  398 0000050C 01A0A0AA        MOVEQ            r10,r10,LSR #1
  399 00000510 12444001        SUBNE            r4,r4,#1
  400 00000514 124AA502        SUBNE            r10,r10,#0x00800000
  401 00000518 E284407F        ADD              r4,r4,#127
  402 0000051C E1A04B84        MOV              r4,r4,LSL #23
  403 00000520 E08AA004        ADD              r10,r10,r4
  404 00000524 E08AA003        ADD              r10,r10, r3
  405 00000528 E1A0200A        MOV              r2,r10      ;;;;;;;;;;;;;;;;;;r
                                                            esult=r2
  406 0000052C E1A0F00E        MOV              pc,lr
  407 00000530         ;;;;;;;;;;;;;;;;;;;;;;;;;;;;;;;;;;;;;;;;;;;;;;;;;;;;;;;;
                       ;;;;;;;;;;;;;;;;;;;
  408 00000530         add_sub
  409 00000530 E021C002        EOR              r12,r1,r2
  410 00000534 E35C0102        CMP              r12, 0x80000000
  411 00000538 03A02000        MOVEQ            r2,0x00000000
  412 0000053C 01A0F00E        MOVEQ            pc,lr
  413 00000540 E59FA73C        LDR              r10, =0x7f800000
  414 00000544 E001400A        AND              r4, r1, r10 ;exponent1         
                                                              (R4)
  415 00000548 E002500A        AND              r5, r2, r10 ;exponent2     (R5)
                                                            
  416 0000054C E1540005        CMP              r4, r5
  417 00000550 31A03001        MOVCC            r3, r1
  418 00000554 31A01002        MOVCC            r1, r2
  419 00000558 31A02003        MOVCC            r2, r3      ;swap two float  
  420 0000055C 3001400A        ANDCC            r4, r1, r10
  421 00000560 3002500A        ANDCC            r5, r2, r10
  422 00000564 E1A04BA4        MOV              r4, r4, LSR #23
  423 00000568 E1A05BA5        MOV              r5, r5, LSR #23
  424 0000056C E0443005        SUB              r3, r4, r5  ; shift amount (R3)
                                                            



ARM Macro Assembler    Page 9 


  425 00000570 E59FA710        LDR              r10, =0x007fffff
  426 00000574 E001500A        AND              r5, r1, r10 ; mantissa1 (R5)
  427 00000578 E002600A        AND              r6, r2, r10 ; mantissa2 (R6)
  428 0000057C E3A0A502        LDR              r10, =0x00800000
  429 00000580 E085500A        ADD              r5, r5, r10
  430 00000584 E086600A        ADD              r6, r6, r10
  431 00000588 E1A06336        MOV              r6, r6, LSR r3 ; shift 
  432 0000058C E3A0A102        LDR              r10, =0x80000000
  433 00000590 E011000A        ANDS             r0, r1, r10 ; check msb for neg
                                                            ative bit 
  434 00000594 11A00005        MOVNE            r0, r5
  435 00000598 11E00000        MVNNE            r0, r0
  436 0000059C 12800001        ADDNE            r0, r0, #1  ; negative 
  437 000005A0 11A05000        MOVNE            r5, r0
  438 000005A4 E012000A        ANDS             r0, r2, r10 ; check msb for neg
                                                            ative bit 
  439 000005A8 11A00006        MOVNE            r0, r6
  440 000005AC 11E00000        MVNNE            r0, r0
  441 000005B0 12800001        ADDNE            r0, r0, #1  ;negative
  442 000005B4 11A06000        MOVNE            r6, r0
  443 000005B8 E0855006        ADD              r5, r5, r6  ; result's mantissa
                                                            
  444 000005BC E015000A        ANDS             r0, r5, r10 ; check msb to see 
                                                            if the result is ne
                                                            gative 
  445 000005C0 11A00005        MOVNE            r0, r5
  446 000005C4 11E00000        MVNNE            r0, r0      ;negative
  447 000005C8 12800001        ADDNE            r0, r0, #1
  448 000005CC 11A05000        MOVNE            r5, r0
  449 000005D0 13A00102        LDRNE            r0, =0x80000000 
                                                            ;negative result
  450 000005D4 03A00000        MOVEQ            r0, #0      ;positive result
  451 000005D8 E3A03000        MOV              r3, #0
  452 000005DC E3A0A102        LDR              r10, =0x80000000
  453 000005E0         
  454 000005E0         normalize
  455 000005E0 E15A0005        CMP              r10, r5
  456 000005E4 82833001        ADDHI            r3, r3, #1
  457 000005E8 81A0A0AA        MOVHI            r10, r10, lsr #1
  458 000005EC 8AFFFFFB        BHI              normalize   ;exponent 
  459 000005F0         
  460 000005F0 E3530008        CMP              r3, #8
  461 000005F4 82433008        SUBHI            r3, r3, #8
  462 000005F8 81A05315        MOVHI            r5, r5, lsl r3
  463 000005FC 80444003        SUBHI            r4, r4, r3
  464 00000600 33A0A008        MOVCC            r10, #8
  465 00000604 304A3003        SUBCC            r3, r10, r3
  466 00000608 31A05335        MOVCC            r5, r5, lsr r3
  467 0000060C 30844003        ADDCC            r4, r4, r3
  468 00000610         
  469 00000610         
  470 00000610 E1A04B84        MOV              r4, r4, lsl #23
  471 00000614 E1800004        ORR              r0, r0, r4
  472 00000618 E59FA668        LDR              r10, =0x007fffff
  473 0000061C E005500A        AND              r5, r5, r10
  474 00000620 E1800005        ORR              r0, r0, r5
  475 00000624 E1A02000        MOV              r2,r0
  476 00000628 E1A0F00E        MOV              pc, lr
  477 0000062C         ;;;;;;;;;;;;;;;;;;;;;;;;;;;;;;;;;;;;;;;;;;;;;;;;;;;;;;;;



ARM Macro Assembler    Page 10 


                       ;;;;;;;;;;;;;;;;;;;;;;
  478 0000062C         
  479 0000062C         
  480 0000062C 40000000 
                       tempaddr
                               &                &40000000
  481 00000630 20000000 
                       tempaddr2
                               &                &20000000
  482 00000634 60000000 
                       Result_data
                               &                &60000000
  483 00000638         Matrix_data
  484 00000638 00000014        DCD              20
  485 0000063C 41A00000        DCD              2_01000001101000000000000000000
000
  486 00000640 43700000        DCD              2_01000011011100000000000000000
000
  487 00000644 41240000        DCD              2_01000001001001000000000000000
000
  488 00000648 42400000        DCD              2_01000010010000000000000000000
000
  489 0000064C 41F00000        DCD              2_01000001111100000000000000000
000
  490 00000650 40040000        DCD              2_01000000000001000000000000000
000
  491 00000654 40500000        DCD              2_01000000010100000000000000000
000
  492 00000658 C19C0000        DCD              2_11000001100111000000000000000
000
  493 0000065C 43180000        DCD              2_01000011000110000000000000000
000
  494 00000660 C1A00000        DCD              2_11000001101000000000000000000
000
  495 00000664 43020000        DCD              2_01000011000000100000000000000
000
  496 00000668 C1280000        DCD              2_11000001001010000000000000000
000
  497 0000066C 41900000        DCD              2_01000001100100000000000000000
000
  498 00000670 C0D80000        DCD              2_11000000110110000000000000000
000
  499 00000674 C2940000        DCD              2_11000010100101000000000000000
000
  500 00000678 44480000        DCD              2_01000100010010000000000000000
000
  501 0000067C C0E80000        DCD              2_11000000111010000000000000000
000
  502 00000680 C1B00000        DCD              2_11000001101100000000000000000
000
  503 00000684 C41C0000        DCD              2_11000100000111000000000000000
000
  504 00000688 C1480000        DCD              2_11000001010010000000000000000
000
  505 0000068C 43440000        DCD              2_01000011010001000000000000000
000
  506 00000690 40380000        DCD              2_01000000001110000000000000000
000
  507 00000694 43480000        DCD              2_01000011010010000000000000000



ARM Macro Assembler    Page 11 


000
  508 00000698 43200000        DCD              2_01000011001000000000000000000
000
  509 0000069C C3580000        DCD              2_11000011010110000000000000000
000
  510 000006A0 C0500000        DCD              2_11000000010100000000000000000
000
  511 000006A4 C4340000        DCD              2_11000100001101000000000000000
000
  512 000006A8 40F40000        DCD              2_01000000111101000000000000000
000
  513 000006AC C36C0000        DCD              2_11000011011011000000000000000
000
  514 000006B0 43580000        DCD              2_01000011010110000000000000000
000
  515 000006B4 42E80000        DCD              2_01000010111010000000000000000
000
  516 000006B8 41C80000        DCD              2_01000001110010000000000000000
000
  517 000006BC 435C0000        DCD              2_01000011010111000000000000000
000
  518 000006C0 C1B80000        DCD              2_11000001101110000000000000000
000
  519 000006C4 C4380000        DCD              2_11000100001110000000000000000
000
  520 000006C8 42F80000        DCD              2_01000010111110000000000000000
000
  521 000006CC 40140000        DCD              2_01000000000101000000000000000
000
  522 000006D0 42300000        DCD              2_01000010001100000000000000000
000
  523 000006D4 41A00000        DCD              2_01000001101000000000000000000
000
  524 000006D8 C2180000        DCD              2_11000010000110000000000000000
000
  525 000006DC C1600000        DCD              2_11000001011000000000000000000
000
  526 000006E0 42D40000        DCD              2_01000010110101000000000000000
000
  527 000006E4 C3580000        DCD              2_11000011010110000000000000000
000
  528 000006E8 43E80000        DCD              2_01000011111010000000000000000
000
  529 000006EC 44680000        DCD              2_01000100011010000000000000000
000
  530 000006F0 C3F00000        DCD              2_11000011111100000000000000000
000
  531 000006F4 C0D00000        DCD              2_11000000110100000000000000000
000
  532 000006F8 C38C0000        DCD              2_11000011100011000000000000000
000
  533 000006FC 40A40000        DCD              2_01000000101001000000000000000
000
  534 00000700 C3D00000        DCD              2_11000011110100000000000000000
000
  535 00000704 C2F80000        DCD              2_11000010111110000000000000000
000
  536 00000708 C2A40000        DCD              2_11000010101001000000000000000
000



ARM Macro Assembler    Page 12 


  537 0000070C 43780000        DCD              2_01000011011110000000000000000
000
  538 00000710 C1B00000        DCD              2_11000001101100000000000000000
000
  539 00000714 C3180000        DCD              2_11000011000110000000000000000
000
  540 00000718 43D40000        DCD              2_01000011110101000000000000000
000
  541 0000071C 42540000        DCD              2_01000010010101000000000000000
000
  542 00000720 C0800000        DCD              2_11000000100000000000000000000
000
  543 00000724 C0440000        DCD              2_11000000010001000000000000000
000
  544 00000728 C0840000        DCD              2_11000000100001000000000000000
000
  545 0000072C 43140000        DCD              2_01000011000101000000000000000
000
  546 00000730 43700000        DCD              2_01000011011100000000000000000
000
  547 00000734 40380000        DCD              2_01000000001110000000000000000
000
  548 00000738 40480000        DCD              2_01000000010010000000000000000
000
  549 0000073C C2480000        DCD              2_11000010010010000000000000000
000
  550 00000740 C0780000        DCD              2_11000000011110000000000000000
000
  551 00000744 C3F80000        DCD              2_11000011111110000000000000000
000
  552 00000748 41020000        DCD              2_01000001000000100000000000000
000
  553 0000074C 429C0000        DCD              2_01000010100111000000000000000
000
  554 00000750 41100000        DCD              2_01000001000100000000000000000
000
  555 00000754 C0E00000        DCD              2_11000000111000000000000000000
000
  556 00000758 42A80000        DCD              2_01000010101010000000000000000
000
  557 0000075C C40C0000        DCD              2_11000100000011000000000000000
000
  558 00000760 42D40000        DCD              2_01000010110101000000000000000
000
  559 00000764 C4500000        DCD              2_11000100010100000000000000000
000
  560 00000768 42000000        DCD              2_01000010000000000000000000000
000
  561 0000076C 42140000        DCD              2_01000010000101000000000000000
000
  562 00000770 C0C00000        DCD              2_11000000110000000000000000000
000
  563 00000774 433C0000        DCD              2_01000011001111000000000000000
000
  564 00000778 40840000        DCD              2_01000000100001000000000000000
000
  565 0000077C C1D00000        DCD              2_11000001110100000000000000000
000
  566 00000780 C2300000        DCD              2_11000010001100000000000000000



ARM Macro Assembler    Page 13 


000
  567 00000784 40F00000        DCD              2_01000000111100000000000000000
000
  568 00000788 40A00000        DCD              2_01000000101000000000000000000
000
  569 0000078C 421C0000        DCD              2_01000010000111000000000000000
000
  570 00000790 40F40000        DCD              2_01000000111101000000000000000
000
  571 00000794 43140000        DCD              2_01000011000101000000000000000
000
  572 00000798 C4500000        DCD              2_11000100010100000000000000000
000
  573 0000079C 42700000        DCD              2_01000010011100000000000000000
000
  574 000007A0 41200000        DCD              2_01000001001000000000000000000
000
  575 000007A4 C1040000        DCD              2_11000001000001000000000000000
000
  576 000007A8 C30C0000        DCD              2_11000011000011000000000000000
000
  577 000007AC 41740000        DCD              2_01000001011101000000000000000
000
  578 000007B0 C1CC0000        DCD              2_11000001110011000000000000000
000
  579 000007B4 41B00000        DCD              2_01000001101100000000000000000
000
  580 000007B8 C11C0000        DCD              2_11000001000111000000000000000
000
  581 000007BC 41080000        DCD              2_01000001000010000000000000000
000
  582 000007C0 C0580000        DCD              2_11000000010110000000000000000
000
  583 000007C4 C3200000        DCD              2_11000011001000000000000000000
000
  584 000007C8 C4300000        DCD              2_11000100001100000000000000000
000
  585 000007CC C3D80000        DCD              2_11000011110110000000000000000
000
  586 000007D0 42580000        DCD              2_01000010010110000000000000000
000
  587 000007D4 44280000        DCD              2_01000100001010000000000000000
000
  588 000007D8 43F00000        DCD              2_01000011111100000000000000000
000
  589 000007DC 405C0000        DCD              2_01000000010111000000000000000
000
  590 000007E0 42E00000        DCD              2_01000010111000000000000000000
000
  591 000007E4 41800000        DCD              2_01000001100000000000000000000
000
  592 000007E8 C12C0000        DCD              2_11000001001011000000000000000
000
  593 000007EC C3B00000        DCD              2_11000011101100000000000000000
000
  594 000007F0 C4440000        DCD              2_11000100010001000000000000000
000
  595 000007F4 42D80000        DCD              2_01000010110110000000000000000
000



ARM Macro Assembler    Page 14 


  596 000007F8 41B00000        DCD              2_01000001101100000000000000000
000
  597 000007FC C1640000        DCD              2_11000001011001000000000000000
000
  598 00000800 C0700000        DCD              2_11000000011100000000000000000
000
  599 00000804 C0080000        DCD              2_11000000000010000000000000000
000
  600 00000808 C0040000        DCD              2_11000000000001000000000000000
000
  601 0000080C 43900000        DCD              2_01000011100100000000000000000
000
  602 00000810 40400000        DCD              2_01000000010000000000000000000
000
  603 00000814 42F80000        DCD              2_01000010111110000000000000000
000
  604 00000818 40C40000        DCD              2_01000000110001000000000000000
000
  605 0000081C 44400000        DCD              2_01000100010000000000000000000
000
  606 00000820 C4300000        DCD              2_11000100001100000000000000000
000
  607 00000824 C1F00000        DCD              2_11000001111100000000000000000
000
  608 00000828 44400000        DCD              2_01000100010000000000000000000
000
  609 0000082C C3000000        DCD              2_11000011000000000000000000000
000
  610 00000830 C0F00000        DCD              2_11000000111100000000000000000
000
  611 00000834 C1E00000        DCD              2_11000001111000000000000000000
000
  612 00000838 C0F00000        DCD              2_11000000111100000000000000000
000
  613 0000083C C0040000        DCD              2_11000000000001000000000000000
000
  614 00000840 42EC0000        DCD              2_01000010111011000000000000000
000
  615 00000844 C1540000        DCD              2_11000001010101000000000000000
000
  616 00000848 41020000        DCD              2_01000001000000100000000000000
000
  617 0000084C 41000000        DCD              2_01000001000000000000000000000
000
  618 00000850 41500000        DCD              2_01000001010100000000000000000
000
  619 00000854 C2380000        DCD              2_11000010001110000000000000000
000
  620 00000858 C4680000        DCD              2_11000100011010000000000000000
000
  621 0000085C 41A00000        DCD              2_01000001101000000000000000000
000
  622 00000860 C3800000        DCD              2_11000011100000000000000000000
000
  623 00000864 41040000        DCD              2_01000001000001000000000000000
000
  624 00000868 44180000        DCD              2_01000100000110000000000000000
000
  625 0000086C 40B80000        DCD              2_01000000101110000000000000000



ARM Macro Assembler    Page 15 


000
  626 00000870 42240000        DCD              2_01000010001001000000000000000
000
  627 00000874 C3580000        DCD              2_11000011010110000000000000000
000
  628 00000878 42A00000        DCD              2_01000010101000000000000000000
000
  629 0000087C C0C80000        DCD              2_11000000110010000000000000000
000
  630 00000880 C4700000        DCD              2_11000100011100000000000000000
000
  631 00000884 41B40000        DCD              2_01000001101101000000000000000
000
  632 00000888 C3040000        DCD              2_11000011000001000000000000000
000
  633 0000088C 43600000        DCD              2_01000011011000000000000000000
000
  634 00000890 40F00000        DCD              2_01000000111100000000000000000
000
  635 00000894 44020000        DCD              2_01000100000000100000000000000
000
  636 00000898 C4600000        DCD              2_11000100011000000000000000000
000
  637 0000089C 40EC0000        DCD              2_01000000111011000000000000000
000
  638 000008A0 C16C0000        DCD              2_11000001011011000000000000000
000
  639 000008A4 C1DC0000        DCD              2_11000001110111000000000000000
000
  640 000008A8 C3E80000        DCD              2_11000011111010000000000000000
000
  641 000008AC C0000000        DCD              2_11000000000000000000000000000
000
  642 000008B0 C1740000        DCD              2_11000001011101000000000000000
000
  643 000008B4 C3580000        DCD              2_11000011010110000000000000000
000
  644 000008B8 42E00000        DCD              2_01000010111000000000000000000
000
  645 000008BC C0840000        DCD              2_11000000100001000000000000000
000
  646 000008C0 43880000        DCD              2_01000011100010000000000000000
000
  647 000008C4 40D00000        DCD              2_01000000110100000000000000000
000
  648 000008C8 C1DC0000        DCD              2_11000001110111000000000000000
000
  649 000008CC C2E00000        DCD              2_11000010111000000000000000000
000
  650 000008D0 43B80000        DCD              2_01000011101110000000000000000
000
  651 000008D4 C0F80000        DCD              2_11000000111110000000000000000
000
  652 000008D8 C4140000        DCD              2_11000100000101000000000000000
000
  653 000008DC 41500000        DCD              2_01000001010100000000000000000
000
  654 000008E0 C0480000        DCD              2_11000000010010000000000000000
000



ARM Macro Assembler    Page 16 


  655 000008E4 C1020000        DCD              2_11000001000000100000000000000
000
  656 000008E8 41180000        DCD              2_01000001000110000000000000000
000
  657 000008EC 40900000        DCD              2_01000000100100000000000000000
000
  658 000008F0 C35C0000        DCD              2_11000011010111000000000000000
000
  659 000008F4 40680000        DCD              2_01000000011010000000000000000
000
  660 000008F8 C4480000        DCD              2_11000100010010000000000000000
000
  661 000008FC 42F80000        DCD              2_01000010111110000000000000000
000
  662 00000900 C3280000        DCD              2_11000011001010000000000000000
000
  663 00000904 C4040000        DCD              2_11000100000001000000000000000
000
  664 00000908 41300000        DCD              2_01000001001100000000000000000
000
  665 0000090C 43FC0000        DCD              2_01000011111111000000000000000
000
  666 00000910 40500000        DCD              2_01000000010100000000000000000
000
  667 00000914 406C0000        DCD              2_01000000011011000000000000000
000
  668 00000918 C4440000        DCD              2_11000100010001000000000000000
000
  669 0000091C C2480000        DCD              2_11000010010010000000000000000
000
  670 00000920 44000000        DCD              2_01000100000000000000000000000
000
  671 00000924 C31C0000        DCD              2_11000011000111000000000000000
000
  672 00000928 42B00000        DCD              2_01000010101100000000000000000
000
  673 0000092C 43C00000        DCD              2_01000011110000000000000000000
000
  674 00000930 C4400000        DCD              2_11000100010000000000000000000
000
  675 00000934 C1240000        DCD              2_11000001001001000000000000000
000
  676 00000938 C2880000        DCD              2_11000010100010000000000000000
000
  677 0000093C 42F00000        DCD              2_01000010111100000000000000000
000
  678 00000940 C0040000        DCD              2_11000000000001000000000000000
000
  679 00000944 C40C0000        DCD              2_11000100000011000000000000000
000
  680 00000948 40700000        DCD              2_01000000011100000000000000000
000
  681 0000094C C1640000        DCD              2_11000001011001000000000000000
000
  682 00000950 C1B80000        DCD              2_11000001101110000000000000000
000
  683 00000954 40680000        DCD              2_01000000011010000000000000000
000
  684 00000958 428C0000        DCD              2_01000010100011000000000000000



ARM Macro Assembler    Page 17 


000
  685 0000095C C1F00000        DCD              2_11000001111100000000000000000
000
  686 00000960 C2900000        DCD              2_11000010100100000000000000000
000
  687 00000964 C3700000        DCD              2_11000011011100000000000000000
000
  688 00000968 C0000000        DCD              2_11000000000000000000000000000
000
  689 0000096C 41500000        DCD              2_01000001010100000000000000000
000
  690 00000970 43240000        DCD              2_01000011001001000000000000000
000
  691 00000974 C1580000        DCD              2_11000001010110000000000000000
000
  692 00000978 44080000        DCD              2_01000100000010000000000000000
000
  693 0000097C 40F80000        DCD              2_01000000111110000000000000000
000
  694 00000980 C2680000        DCD              2_11000010011010000000000000000
000
  695 00000984 43C00000        DCD              2_01000011110000000000000000000
000
  696 00000988 44600000        DCD              2_01000100011000000000000000000
000
  697 0000098C C1C00000        DCD              2_11000001110000000000000000000
000
  698 00000990 41380000        DCD              2_01000001001110000000000000000
000
  699 00000994 41780000        DCD              2_01000001011110000000000000000
000
  700 00000998 43640000        DCD              2_01000011011001000000000000000
000
  701 0000099C 41880000        DCD              2_01000001100010000000000000000
000
  702 000009A0 C4280000        DCD              2_11000100001010000000000000000
000
  703 000009A4 C2C40000        DCD              2_11000010110001000000000000000
000
  704 000009A8 C1400000        DCD              2_11000001010000000000000000000
000
  705 000009AC 40E80000        DCD              2_01000000111010000000000000000
000
  706 000009B0 C36C0000        DCD              2_11000011011011000000000000000
000
  707 000009B4 42200000        DCD              2_01000010001000000000000000000
000
  708 000009B8 414C0000        DCD              2_01000001010011000000000000000
000
  709 000009BC 43200000        DCD              2_01000011001000000000000000000
000
  710 000009C0 42800000        DCD              2_01000010100000000000000000000
000
  711 000009C4 C2480000        DCD              2_11000010010010000000000000000
000
  712 000009C8 C2200000        DCD              2_11000010001000000000000000000
000
  713 000009CC C1680000        DCD              2_11000001011010000000000000000
000



ARM Macro Assembler    Page 18 


  714 000009D0 40780000        DCD              2_01000000011110000000000000000
000
  715 000009D4 40E00000        DCD              2_01000000111000000000000000000
000
  716 000009D8 40280000        DCD              2_01000000001010000000000000000
000
  717 000009DC 41580000        DCD              2_01000001010110000000000000000
000
  718 000009E0 C2700000        DCD              2_11000010011100000000000000000
000
  719 000009E4 42640000        DCD              2_01000010011001000000000000000
000
  720 000009E8 41900000        DCD              2_01000001100100000000000000000
000
  721 000009EC C07C0000        DCD              2_11000000011111000000000000000
000
  722 000009F0 C1880000        DCD              2_11000001100010000000000000000
000
  723 000009F4 44600000        DCD              2_01000100011000000000000000000
000
  724 000009F8 438C0000        DCD              2_01000011100011000000000000000
000
  725 000009FC 44500000        DCD              2_01000100010100000000000000000
000
  726 00000A00 41900000        DCD              2_01000001100100000000000000000
000
  727 00000A04 C3100000        DCD              2_11000011000100000000000000000
000
  728 00000A08 C3200000        DCD              2_11000011001000000000000000000
000
  729 00000A0C 44700000        DCD              2_01000100011100000000000000000
000
  730 00000A10 C13C0000        DCD              2_11000001001111000000000000000
000
  731 00000A14 C4300000        DCD              2_11000100001100000000000000000
000
  732 00000A18 40DC0000        DCD              2_01000000110111000000000000000
000
  733 00000A1C 440C0000        DCD              2_01000100000011000000000000000
000
  734 00000A20 C0BC0000        DCD              2_11000000101111000000000000000
000
  735 00000A24 C1000000        DCD              2_11000001000000000000000000000
000
  736 00000A28 C2EC0000        DCD              2_11000010111011000000000000000
000
  737 00000A2C 41840000        DCD              2_01000001100001000000000000000
000
  738 00000A30 43040000        DCD              2_01000011000001000000000000000
000
  739 00000A34 C1700000        DCD              2_11000001011100000000000000000
000
  740 00000A38 C23C0000        DCD              2_11000010001111000000000000000
000
  741 00000A3C 42FC0000        DCD              2_01000010111111000000000000000
000
  742 00000A40 43000000        DCD              2_01000011000000000000000000000
000
  743 00000A44 C0000000        DCD              2_11000000000000000000000000000



ARM Macro Assembler    Page 19 


000
  744 00000A48 41880000        DCD              2_01000001100010000000000000000
000
  745 00000A4C C4600000        DCD              2_11000100011000000000000000000
000
  746 00000A50 40800000        DCD              2_01000000100000000000000000000
000
  747 00000A54 C1800000        DCD              2_11000001100000000000000000000
000
  748 00000A58 C3BC0000        DCD              2_11000011101111000000000000000
000
  749 00000A5C C2D00000        DCD              2_11000010110100000000000000000
000
  750 00000A60 40F80000        DCD              2_01000000111110000000000000000
000
  751 00000A64 43CC0000        DCD              2_01000011110011000000000000000
000
  752 00000A68 42880000        DCD              2_01000010100010000000000000000
000
  753 00000A6C 44000000        DCD              2_01000100000000000000000000000
000
  754 00000A70 40480000        DCD              2_01000000010010000000000000000
000
  755 00000A74 C26C0000        DCD              2_11000010011011000000000000000
000
  756 00000A78 C3B00000        DCD              2_11000011101100000000000000000
000
  757 00000A7C C3F40000        DCD              2_11000011111101000000000000000
000
  758 00000A80 41A40000        DCD              2_01000001101001000000000000000
000
  759 00000A84 43D00000        DCD              2_01000011110100000000000000000
000
  760 00000A88 41340000        DCD              2_01000001001101000000000000000
000
  761 00000A8C 42880000        DCD              2_01000010100010000000000000000
000
  762 00000A90 40F00000        DCD              2_01000000111100000000000000000
000
  763 00000A94 C1A00000        DCD              2_11000001101000000000000000000
000
  764 00000A98 C2300000        DCD              2_11000010001100000000000000000
000
  765 00000A9C 42280000        DCD              2_01000010001010000000000000000
000
  766 00000AA0 C1880000        DCD              2_11000001100010000000000000000
000
  767 00000AA4 40D00000        DCD              2_01000000110100000000000000000
000
  768 00000AA8 C1B00000        DCD              2_11000001101100000000000000000
000
  769 00000AAC 42380000        DCD              2_01000010001110000000000000000
000
  770 00000AB0 41280000        DCD              2_01000001001010000000000000000
000
  771 00000AB4 C1200000        DCD              2_11000001001000000000000000000
000
  772 00000AB8 C2680000        DCD              2_11000010011010000000000000000
000



ARM Macro Assembler    Page 20 


  773 00000ABC C2F00000        DCD              2_11000010111100000000000000000
000
  774 00000AC0 C1800000        DCD              2_11000001100000000000000000000
000
  775 00000AC4 43CC0000        DCD              2_01000011110011000000000000000
000
  776 00000AC8 40140000        DCD              2_01000000000101000000000000000
000
  777 00000ACC C06C0000        DCD              2_11000000011011000000000000000
000
  778 00000AD0 C25C0000        DCD              2_11000010010111000000000000000
000
  779 00000AD4 C1740000        DCD              2_11000001011101000000000000000
000
  780 00000AD8 C0A00000        DCD              2_11000000101000000000000000000
000
  781 00000ADC 43600000        DCD              2_01000011011000000000000000000
000
  782 00000AE0 40880000        DCD              2_01000000100010000000000000000
000
  783 00000AE4 C1840000        DCD              2_11000001100001000000000000000
000
  784 00000AE8 C0840000        DCD              2_11000000100001000000000000000
000
  785 00000AEC C2CC0000        DCD              2_11000010110011000000000000000
000
  786 00000AF0 C2440000        DCD              2_11000010010001000000000000000
000
  787 00000AF4 C0A00000        DCD              2_11000000101000000000000000000
000
  788 00000AF8 C0A00000        DCD              2_11000000101000000000000000000
000
  789 00000AFC C3540000        DCD              2_11000011010101000000000000000
000
  790 00000B00 C1A00000        DCD              2_11000001101000000000000000000
000
  791 00000B04 43880000        DCD              2_01000011100010000000000000000
000
  792 00000B08 41580000        DCD              2_01000001010110000000000000000
000
  793 00000B0C C0100000        DCD              2_11000000000100000000000000000
000
  794 00000B10 C3F80000        DCD              2_11000011111110000000000000000
000
  795 00000B14 C0000000        DCD              2_11000000000000000000000000000
000
  796 00000B18 C4080000        DCD              2_11000100000010000000000000000
000
  797 00000B1C C2F00000        DCD              2_11000010111100000000000000000
000
  798 00000B20 41D00000        DCD              2_01000001110100000000000000000
000
  799 00000B24 C2440000        DCD              2_11000010010001000000000000000
000
  800 00000B28 C0600000        DCD              2_11000000011000000000000000000
000
  801 00000B2C 40200000        DCD              2_01000000001000000000000000000
000
  802 00000B30 43580000        DCD              2_01000011010110000000000000000



ARM Macro Assembler    Page 21 


000
  803 00000B34 41940000        DCD              2_01000001100101000000000000000
000
  804 00000B38 C0880000        DCD              2_11000000100010000000000000000
000
  805 00000B3C C3200000        DCD              2_11000011001000000000000000000
000
  806 00000B40 40380000        DCD              2_01000000001110000000000000000
000
  807 00000B44 40680000        DCD              2_01000000011010000000000000000
000
  808 00000B48 44000000        DCD              2_01000100000000000000000000000
000
  809 00000B4C 40780000        DCD              2_01000000011110000000000000000
000
  810 00000B50 43A40000        DCD              2_01000011101001000000000000000
000
  811 00000B54 42300000        DCD              2_01000010001100000000000000000
000
  812 00000B58 42800000        DCD              2_01000010100000000000000000000
000
  813 00000B5C 42500000        DCD              2_01000010010100000000000000000
000
  814 00000B60 41280000        DCD              2_01000001001010000000000000000
000
  815 00000B64 C3D00000        DCD              2_11000011110100000000000000000
000
  816 00000B68 41D80000        DCD              2_01000001110110000000000000000
000
  817 00000B6C C0CC0000        DCD              2_11000000110011000000000000000
000
  818 00000B70 40280000        DCD              2_01000000001010000000000000000
000
  819 00000B74 43A00000        DCD              2_01000011101000000000000000000
000
  820 00000B78 40C80000        DCD              2_01000000110010000000000000000
000
  821 00000B7C 42B00000        DCD              2_01000010101100000000000000000
000
  822 00000B80 42180000        DCD              2_01000010000110000000000000000
000
  823 00000B84 C3A00000        DCD              2_11000011101000000000000000000
000
  824 00000B88 425C0000        DCD              2_01000010010111000000000000000
000
  825 00000B8C C1880000        DCD              2_11000001100010000000000000000
000
  826 00000B90 C0E00000        DCD              2_11000000111000000000000000000
000
  827 00000B94 41C80000        DCD              2_01000001110010000000000000000
000
  828 00000B98 C3600000        DCD              2_11000011011000000000000000000
000
  829 00000B9C C1B00000        DCD              2_11000001101100000000000000000
000
  830 00000BA0 C1C80000        DCD              2_11000001110010000000000000000
000
  831 00000BA4 42400000        DCD              2_01000010010000000000000000000
000



ARM Macro Assembler    Page 22 


  832 00000BA8 407C0000        DCD              2_01000000011111000000000000000
000
  833 00000BAC C1020000        DCD              2_11000001000000100000000000000
000
  834 00000BB0 C14C0000        DCD              2_11000001010011000000000000000
000
  835 00000BB4 C0B80000        DCD              2_11000000101110000000000000000
000
  836 00000BB8 C3640000        DCD              2_11000011011001000000000000000
000
  837 00000BBC 41140000        DCD              2_01000001000101000000000000000
000
  838 00000BC0 C4000000        DCD              2_11000100000000000000000000000
000
  839 00000BC4 42B80000        DCD              2_01000010101110000000000000000
000
  840 00000BC8 C2400000        DCD              2_11000010010000000000000000000
000
  841 00000BCC C3940000        DCD              2_11000011100101000000000000000
000
  842 00000BD0 43000000        DCD              2_01000011000000000000000000000
000
  843 00000BD4 42000000        DCD              2_01000010000000000000000000000
000
  844 00000BD8 C2500000        DCD              2_11000010010100000000000000000
000
  845 00000BDC C0E00000        DCD              2_11000000111000000000000000000
000
  846 00000BE0 C4000000        DCD              2_11000100000000000000000000000
000
  847 00000BE4 42000000        DCD              2_01000010000000000000000000000
000
  848 00000BE8 C1980000        DCD              2_11000001100110000000000000000
000
  849 00000BEC 43680000        DCD              2_01000011011010000000000000000
000
  850 00000BF0 C2080000        DCD              2_11000010000010000000000000000
000
  851 00000BF4 C2500000        DCD              2_11000010010100000000000000000
000
  852 00000BF8 C0080000        DCD              2_11000000000010000000000000000
000
  853 00000BFC 42F80000        DCD              2_01000010111110000000000000000
000
  854 00000C00 C1E00000        DCD              2_11000001111000000000000000000
000
  855 00000C04 41940000        DCD              2_01000001100101000000000000000
000
  856 00000C08 C2A80000        DCD              2_11000010101010000000000000000
000
  857 00000C0C C0020000        DCD              2_11000000000000100000000000000
000
  858 00000C10 406C0000        DCD              2_01000000011011000000000000000
000
  859 00000C14 41A00000        DCD              2_01000001101000000000000000000
000
  860 00000C18 C2900000        DCD              2_11000010100100000000000000000
000
  861 00000C1C 40A80000        DCD              2_01000000101010000000000000000



ARM Macro Assembler    Page 23 


000
  862 00000C20 C3780000        DCD              2_11000011011110000000000000000
000
  863 00000C24 C2040000        DCD              2_11000010000001000000000000000
000
  864 00000C28 C1380000        DCD              2_11000001001110000000000000000
000
  865 00000C2C C1C40000        DCD              2_11000001110001000000000000000
000
  866 00000C30 C1D00000        DCD              2_11000001110100000000000000000
000
  867 00000C34 C1980000        DCD              2_11000001100110000000000000000
000
  868 00000C38 43640000        DCD              2_01000011011001000000000000000
000
  869 00000C3C 42400000        DCD              2_01000010010000000000000000000
000
  870 00000C40 C1140000        DCD              2_11000001000101000000000000000
000
  871 00000C44 40000000        DCD              2_01000000000000000000000000000
000
  872 00000C48 C1DC0000        DCD              2_11000001110111000000000000000
000
  873 00000C4C 42A00000        DCD              2_01000010101000000000000000000
000
  874 00000C50 C3D40000        DCD              2_11000011110101000000000000000
000
  875 00000C54 40FC0000        DCD              2_01000000111111000000000000000
000
  876 00000C58 41100000        DCD              2_01000001000100000000000000000
000
  877 00000C5C 43100000        DCD              2_01000011000100000000000000000
000
  878 00000C60 43300000        DCD              2_01000011001100000000000000000
000
  879 00000C64 44780000        DCD              2_01000100011110000000000000000
000
  880 00000C68 C3640000        DCD              2_11000011011001000000000000000
000
  881 00000C6C 40D40000        DCD              2_01000000110101000000000000000
000
  882 00000C70 C0280000        DCD              2_11000000001010000000000000000
000
  883 00000C74 41300000        DCD              2_01000001001100000000000000000
000
  884 00000C78 40D00000        DCD              2_01000000110100000000000000000
000
  885 00000C7C         
  886 00000C7C                 END
              00000000 
              00000000 
              7F800000 
              007FFFFF 
Command Line: --debug --xref --diag_suppress=9931 --cpu=ARM9E --apcs=interwork 
--depend=.\objects\matrix.d -o.\objects\matrix.o -IC:\Keil_v5\ARM\RV31\INC -IC:
\Keil_v5\ARM\CMSIS\Include --predefine="__EVAL SETA 1" --predefine="__UVISION_V
ERSION SETA 528" --list=.\listings\matrix.lst matrix.s



ARM Macro Assembler    Page 1 Alphabetic symbol ordering
Relocatable symbols

Matrix_data 00000638

Symbol: Matrix_data
   Definitions
      At line 483 in file matrix.s
   Uses
      At line 5 in file matrix.s
      At line 18 in file matrix.s

Result_data 00000634

Symbol: Result_data
   Definitions
      At line 482 in file matrix.s
   Uses
      At line 248 in file matrix.s
Comment: Result_data used once
add_sub 00000530

Symbol: add_sub
   Definitions
      At line 408 in file matrix.s
   Uses
      At line 197 in file matrix.s
Comment: add_sub used once
big_loop 0000009C

Symbol: big_loop
   Definitions
      At line 47 in file matrix.s
   Uses
      At line 215 in file matrix.s
Comment: big_loop used once
booth 000003EC

Symbol: booth
   Definitions
      At line 309 in file matrix.s
   Uses
      At line 333 in file matrix.s
Comment: booth used once
calculate_size 000002EC

Symbol: calculate_size
   Definitions
      At line 227 in file matrix.s
   Uses
      At line 11 in file matrix.s
      At line 231 in file matrix.s

change 00000168

Symbol: change
   Definitions
      At line 107 in file matrix.s
   Uses
      At line 113 in file matrix.s
Comment: change used once
divi 00000494



ARM Macro Assembler    Page 2 Alphabetic symbol ordering
Relocatable symbols


Symbol: divi
   Definitions
      At line 360 in file matrix.s
   Uses
      At line 125 in file matrix.s
Comment: divi used once
division 000004D8

Symbol: division
   Definitions
      At line 381 in file matrix.s
   Uses
      At line 391 in file matrix.s
Comment: division used once
finish_matrix 00000328

Symbol: finish_matrix
   Definitions
      At line 248 in file matrix.s
   Uses
      At line 146 in file matrix.s
Comment: finish_matrix used once
get_line_byte 000002D8

Symbol: get_line_byte
   Definitions
      At line 219 in file matrix.s
   Uses
      At line 14 in file matrix.s
      At line 223 in file matrix.s
      At line 253 in file matrix.s

go_i_0 00000148

Symbol: go_i_0
   Definitions
      At line 99 in file matrix.s
   Uses
      At line 101 in file matrix.s
Comment: go_i_0 used once
go_k_0 00000158

Symbol: go_k_0
   Definitions
      At line 103 in file matrix.s
   Uses
      At line 105 in file matrix.s
Comment: go_k_0 used once
go_k_i 00000124

Symbol: go_k_i
   Definitions
      At line 88 in file matrix.s
   Uses
      At line 94 in file matrix.s
Comment: go_k_i used once
go_n_i 00000118




ARM Macro Assembler    Page 3 Alphabetic symbol ordering
Relocatable symbols

Symbol: go_n_i
   Definitions
      At line 83 in file matrix.s
   Uses
      At line 86 in file matrix.s
Comment: go_n_i used once
initialize_inverse_matrix 00000058

Symbol: initialize_inverse_matrix
   Definitions
      At line 27 in file matrix.s
   Uses
      At line 33 in file matrix.s
Comment: initialize_inverse_matrix used once
line_exchange 0000010C

Symbol: line_exchange
   Definitions
      At line 79 in file matrix.s
   Uses
      At line 73 in file matrix.s
Comment: line_exchange used once
loop1 00000188

Symbol: loop1
   Definitions
      At line 118 in file matrix.s
   Uses
      At line 71 in file matrix.s
      At line 77 in file matrix.s
      At line 131 in file matrix.s

loop2 000001C4

Symbol: loop2
   Definitions
      At line 138 in file matrix.s
   Uses
      At line 134 in file matrix.s
      At line 140 in file matrix.s
      At line 209 in file matrix.s

loop3 0000025C

Symbol: loop3
   Definitions
      At line 184 in file matrix.s
   Uses
      At line 204 in file matrix.s
Comment: loop3 used once
make_fraction 00000448

Symbol: make_fraction
   Definitions
      At line 336 in file matrix.s
   Uses
      At line 346 in file matrix.s
Comment: make_fraction used once
matrix 00000000



ARM Macro Assembler    Page 4 Alphabetic symbol ordering
Relocatable symbols


Symbol: matrix
   Definitions
      At line 1 in file matrix.s
   Uses
      None
Comment: matrix unused
mult 00000384

Symbol: mult
   Definitions
      At line 278 in file matrix.s
   Uses
      At line 191 in file matrix.s
Comment: mult used once
next_line 00000368

Symbol: next_line
   Definitions
      At line 267 in file matrix.s
   Uses
      At line 265 in file matrix.s
Comment: next_line used once
normalize 000005E0

Symbol: normalize
   Definitions
      At line 454 in file matrix.s
   Uses
      At line 458 in file matrix.s
Comment: normalize used once
program_end 00000380

Symbol: program_end
   Definitions
      At line 274 in file matrix.s
   Uses
      At line 272 in file matrix.s
Comment: program_end used once
result 00000500

Symbol: result
   Definitions
      At line 394 in file matrix.s
   Uses
      At line 390 in file matrix.s
Comment: result used once
set_i_j 000000D4

Symbol: set_i_j
   Definitions
      At line 62 in file matrix.s
   Uses
      At line 67 in file matrix.s
Comment: set_i_j used once
set_i_k 00000228

Symbol: set_i_k
   Definitions



ARM Macro Assembler    Page 5 Alphabetic symbol ordering
Relocatable symbols

      At line 167 in file matrix.s
   Uses
      At line 171 in file matrix.s
Comment: set_i_k used once
set_j_k 00000244

Symbol: set_j_k
   Definitions
      At line 175 in file matrix.s
   Uses
      At line 179 in file matrix.s
Comment: set_j_k used once
set_t 000000B4

Symbol: set_t
   Definitions
      At line 54 in file matrix.s
   Uses
      At line 58 in file matrix.s
Comment: set_t used once
set_t_col 00000208

Symbol: set_t_col
   Definitions
      At line 158 in file matrix.s
   Uses
      At line 162 in file matrix.s
Comment: set_t_col used once
set_t_row 000001F4

Symbol: set_t_row
   Definitions
      At line 152 in file matrix.s
   Uses
      At line 156 in file matrix.s
Comment: set_t_row used once
start 00000000

Symbol: start
   Definitions
      At line 3 in file matrix.s
   Uses
      None
Comment: start unused
store_data 00000300

Symbol: store_data
   Definitions
      At line 235 in file matrix.s
   Uses
      At line 21 in file matrix.s
      At line 244 in file matrix.s

store_result 00000350

Symbol: store_result
   Definitions
      At line 260 in file matrix.s
   Uses



ARM Macro Assembler    Page 6 Alphabetic symbol ordering
Relocatable symbols

      At line 264 in file matrix.s
      At line 271 in file matrix.s

tempaddr 0000062C

Symbol: tempaddr
   Definitions
      At line 480 in file matrix.s
   Uses
      At line 6 in file matrix.s
      At line 23 in file matrix.s
      At line 36 in file matrix.s
      At line 37 in file matrix.s
      At line 51 in file matrix.s
      At line 60 in file matrix.s
      At line 81 in file matrix.s
      At line 96 in file matrix.s
      At line 147 in file matrix.s
      At line 249 in file matrix.s

tempaddr2 00000630

Symbol: tempaddr2
   Definitions
      At line 481 in file matrix.s
   Uses
      At line 7 in file matrix.s
Comment: tempaddr2 used once
38 symbols
372 symbols in table
